; Function Attrs: nofree norecurse nosync nounwind memory(none) uwtable
define dso_local range(i64 0, 4294967296) i64 @cm_zlib_crc32_combine64(i64 noundef %0, i64 noundef %1, i64 noundef %2) local_unnamed_addr #2 {
  %.not10.i = icmp eq i64 %2, 0
  br i1 %.not10.i, label %x2nmodp.exit, label %.lr.ph.i

.lr.ph.i:                                         ; preds = %3, %multmodp.exit.i
  %.013.i = phi i32 [ %.1.i, %multmodp.exit.i ], [ -2147483648, %3 ]
  %.0712.i = phi i32 [ %24, %multmodp.exit.i ], [ 3, %3 ]
  %.0811.i = phi i64 [ %23, %multmodp.exit.i ], [ %2, %3 ]
  %4 = and i64 %.0811.i, 1
  %.not9.i = icmp eq i64 %4, 0
  br i1 %.not9.i, label %multmodp.exit.i, label %5

5:                                                ; preds = %.lr.ph.i
  %6 = and i32 %.0712.i, 31
  %7 = zext nneg i32 %6 to i64
  %8 = getelementptr inbounds nuw [32 x i32], ptr @x2n_table, i64 0, i64 %7
  %9 = load i32, ptr %8, align 4, !tbaa !7
  br label %10

10:                                               ; preds = %17, %5
  %.012.i.i = phi i32 [ %.013.i, %5 ], [ %22, %17 ]
  %.011.i.i = phi i32 [ -2147483648, %5 ], [ %18, %17 ]
  %.0.i.i = phi i32 [ 0, %5 ], [ %.1.i.i, %17 ]
  %11 = and i32 %.011.i.i, %9
  %.not.i.i = icmp eq i32 %11, 0
  br i1 %.not.i.i, label %17, label %12

12:                                               ; preds = %10
  %13 = xor i32 %.0.i.i, %.012.i.i
  %14 = add i32 %.011.i.i, -1
  %15 = and i32 %14, %9
  %16 = icmp eq i32 %15, 0
  br i1 %16, label %multmodp.exit.i, label %17

17:                                               ; preds = %12, %10
  %.1.i.i = phi i32 [ %13, %12 ], [ %.0.i.i, %10 ]
  %18 = lshr i32 %.011.i.i, 1
  %19 = and i32 %.012.i.i, 1
  %.not13.i.i = icmp eq i32 %19, 0
  %20 = lshr i32 %.012.i.i, 1
  %21 = xor i32 %20, -306674912
  %22 = select i1 %.not13.i.i, i32 %20, i32 %21
  br label %10

multmodp.exit.i:                                  ; preds = %12, %.lr.ph.i
  %.1.i = phi i32 [ %.013.i, %.lr.ph.i ], [ %13, %12 ]
  %23 = ashr i64 %.0811.i, 1
  %24 = add i32 %.0712.i, 1
  %.not.i = icmp ult i64 %.0811.i, 2
  br i1 %.not.i, label %x2nmodp.exit, label %.lr.ph.i, !llvm.loop !18

x2nmodp.exit:                                     ; preds = %multmodp.exit.i, %3
  %.0.lcssa.i = phi i32 [ -2147483648, %3 ], [ %.1.i, %multmodp.exit.i ]
  %25 = trunc i64 %0 to i32
  br label %26

26:                                               ; preds = %33, %x2nmodp.exit
  %.012.i = phi i32 [ %25, %x2nmodp.exit ], [ %38, %33 ]
  %.011.i = phi i32 [ -2147483648, %x2nmodp.exit ], [ %34, %33 ]
  %.0.i = phi i32 [ 0, %x2nmodp.exit ], [ %.1.i4, %33 ]
  %27 = and i32 %.011.i, %.0.lcssa.i
  %.not.i3 = icmp eq i32 %27, 0
  br i1 %.not.i3, label %33, label %28

28:                                               ; preds = %26
  %29 = xor i32 %.0.i, %.012.i
  %30 = add i32 %.011.i, -1
  %31 = and i32 %30, %.0.lcssa.i
  %32 = icmp eq i32 %31, 0
  br i1 %32, label %multmodp.exit, label %33

33:                                               ; preds = %28, %26
  %.1.i4 = phi i32 [ %29, %28 ], [ %.0.i, %26 ]
  %34 = lshr i32 %.011.i, 1
  %35 = and i32 %.012.i, 1
  %.not13.i = icmp eq i32 %35, 0
  %36 = lshr i32 %.012.i, 1
  %37 = xor i32 %36, -306674912
  %38 = select i1 %.not13.i, i32 %36, i32 %37
  br label %26

multmodp.exit:                                    ; preds = %28
  %39 = zext i32 %29 to i64
  %40 = and i64 %1, 4294967295
  %41 = xor i64 %40, %39
  ret i64 %41
}